; Function Attrs: mustprogress nounwind uwtable
define dso_local noundef i32 @_ZNK4node10MapKVStore5QueryEPN2v87IsolateENS1_5LocalINS1_6StringEEE(ptr noundef nonnull align 8 dereferenceable(104) %this, ptr noundef %isolate, ptr %key.coerce) unnamed_addr #3 align 2 {
entry:
  %str = alloca %"class.node::Utf8Value", align 8
  call void @_ZN4node9Utf8ValueC1EPN2v87IsolateENS1_5LocalINS1_5ValueEEE(ptr noundef nonnull align 8 dereferenceable(1048) %str, ptr noundef %isolate, ptr %key.coerce) #20
  %buf_.i = getelementptr inbounds i8, ptr %str, i64 16
  %0 = load ptr, ptr %buf_.i, align 8
  %call11 = call noundef i32 @_ZNK4node10MapKVStore5QueryEPKc(ptr noundef nonnull align 8 dereferenceable(104) %this, ptr noundef %0), !range !35
  %1 = load ptr, ptr %buf_.i, align 8
  %cmp.i.i.i.i = icmp ne ptr %1, null
  %buf_st_.i.i.i = getelementptr inbounds i8, ptr %str, i64 24
  %cmp.i.i.i = icmp ne ptr %1, %buf_st_.i.i.i
  %2 = select i1 %cmp.i.i.i.i, i1 %cmp.i.i.i, i1 false
  br i1 %2, label %if.then.i.i, label %_ZN4node9Utf8ValueD2Ev.exit

if.then.i.i:                                      ; preds = %entry
  call void @free(ptr noundef nonnull %1) #20
  br label %_ZN4node9Utf8ValueD2Ev.exit

_ZN4node9Utf8ValueD2Ev.exit:                      ; preds = %entry, %if.then.i.i
  ret i32 %call11
}